target datalayout = "e-m:e-p270:32:32-p271:32:32-p272:64:64-i64:64-i128:128-f80:128-n8:16:32:64-S128"
target triple = "x86_64-pc-linux-gnu"

%struct.MvcCoverStruct = type { i32, i32, i32, %struct.MvcListStruct, ptr, i32, ptr, ptr, ptr }
%struct.MvcListStruct = type { ptr, ptr, i32 }

; Function Attrs: nounwind uwtable
define void @Mvc_CoverDeallocateArrayLits(ptr noundef %0) #0 {
  %2 = alloca ptr, align 8
  store ptr %0, ptr %2, align 8, !tbaa !13
  %3 = load ptr, ptr %2, align 8, !tbaa !13
  %4 = getelementptr inbounds nuw %struct.MvcCoverStruct, ptr %3, i32 0, i32 6
  %5 = load ptr, ptr %4, align 8, !tbaa !30
  %6 = icmp ne ptr %5, null
  br i1 %6, label %7, label %30

7:                                                ; preds = %1
  %8 = load ptr, ptr %2, align 8, !tbaa !13
  %9 = getelementptr inbounds nuw %struct.MvcCoverStruct, ptr %8, i32 0, i32 6
  %10 = load ptr, ptr %9, align 8, !tbaa !30
  %11 = icmp ne ptr %10, null
  br i1 %11, label %12, label %27

12:                                               ; preds = %7
  %13 = load ptr, ptr %2, align 8, !tbaa !13
  %14 = getelementptr inbounds nuw %struct.MvcCoverStruct, ptr %13, i32 0, i32 6
  %15 = load ptr, ptr %14, align 8, !tbaa !30
  %16 = icmp ne ptr %15, null
  br i1 %16, label %17, label %23

17:                                               ; preds = %12
  %18 = load ptr, ptr %2, align 8, !tbaa !13
  %19 = getelementptr inbounds nuw %struct.MvcCoverStruct, ptr %18, i32 0, i32 6
  %20 = load ptr, ptr %19, align 8, !tbaa !30
  call void @free(ptr noundef %20) #5
  %21 = load ptr, ptr %2, align 8, !tbaa !13
  %22 = getelementptr inbounds nuw %struct.MvcCoverStruct, ptr %21, i32 0, i32 6
  store ptr null, ptr %22, align 8, !tbaa !30
  br label %24

23:                                               ; preds = %12
  br label %24

24:                                               ; preds = %23, %17
  %25 = load ptr, ptr %2, align 8, !tbaa !13
  %26 = getelementptr inbounds nuw %struct.MvcCoverStruct, ptr %25, i32 0, i32 6
  store ptr null, ptr %26, align 8, !tbaa !30
  br label %27

27:                                               ; preds = %24, %7
  %28 = load ptr, ptr %2, align 8, !tbaa !13
  %29 = getelementptr inbounds nuw %struct.MvcCoverStruct, ptr %28, i32 0, i32 6
  store ptr null, ptr %29, align 8, !tbaa !30
  br label %30

30:                                               ; preds = %27, %1
  ret void
}